target datalayout = "e-m:e-p270:32:32-p271:32:32-p272:64:64-i64:64-i128:128-f80:128-n8:16:32:64-S128"
target triple = "x86_64-pc-linux-gnu"

%struct.UTrie2 = type { ptr, ptr, ptr, i32, i32, i16, i16, i32, i32, i32, i32, ptr, i32, i8, i8, i16, ptr }

@_ZL9propsTrie = internal constant %struct.UTrie2 { ptr @_ZL15propsTrie_index, ptr getelementptr (i8, ptr @_ZL15propsTrie_index, i64 9496), ptr null, i32 4748, i32 19048, i16 2624, i16 4876, i32 0, i32 0, i32 1114112, i32 23792, ptr null, i32 0, i8 0, i8 0, i16 0, ptr null }, align 8

; Function Attrs: mustprogress nounwind uwtable
define signext i8 @u_isblank_77(i32 noundef %0) #0 {
  %2 = alloca i8, align 1
  %3 = alloca i32, align 4
  %4 = alloca i32, align 4
  store i32 %0, ptr %3, align 4, !tbaa !3
  %5 = load i32, ptr %3, align 4, !tbaa !3
  %6 = icmp ule i32 %5, 159
  br i1 %6, label %7, label %16

7:                                                ; preds = %1
  %8 = load i32, ptr %3, align 4, !tbaa !3
  %9 = icmp eq i32 %8, 9
  br i1 %9, label %13, label %10

10:                                               ; preds = %7
  %11 = load i32, ptr %3, align 4, !tbaa !3
  %12 = icmp eq i32 %11, 32
  br label %13

13:                                               ; preds = %10, %7
  %14 = phi i1 [ true, %7 ], [ %12, %10 ]
  %15 = zext i1 %14 to i8
  store i8 %15, ptr %2, align 1
  br label %98

16:                                               ; preds = %1
  call void @llvm.lifetime.start.p0(i64 4, ptr %4) #6
  %17 = load ptr, ptr @_ZL9propsTrie, align 8, !tbaa !7
  %18 = load i32, ptr %3, align 4, !tbaa !3
  %19 = icmp ult i32 %18, 55296
  br i1 %19, label %20, label %33

20:                                               ; preds = %16
  %21 = load ptr, ptr @_ZL9propsTrie, align 8, !tbaa !7
  %22 = load i32, ptr %3, align 4, !tbaa !3
  %23 = ashr i32 %22, 5
  %24 = add nsw i32 0, %23
  %25 = sext i32 %24 to i64
  %26 = getelementptr inbounds i16, ptr %21, i64 %25
  %27 = load i16, ptr %26, align 2, !tbaa !14
  %28 = zext i16 %27 to i32
  %29 = shl i32 %28, 2
  %30 = load i32, ptr %3, align 4, !tbaa !3
  %31 = and i32 %30, 31
  %32 = add nsw i32 %29, %31
  br label %88

33:                                               ; preds = %16
  %34 = load i32, ptr %3, align 4, !tbaa !3
  %35 = icmp ule i32 %34, 65535
  br i1 %35, label %36, label %52

36:                                               ; preds = %33
  %37 = load ptr, ptr @_ZL9propsTrie, align 8, !tbaa !7
  %38 = load i32, ptr %3, align 4, !tbaa !3
  %39 = icmp sle i32 %38, 56319
  %40 = select i1 %39, i32 320, i32 0
  %41 = load i32, ptr %3, align 4, !tbaa !3
  %42 = ashr i32 %41, 5
  %43 = add nsw i32 %40, %42
  %44 = sext i32 %43 to i64
  %45 = getelementptr inbounds i16, ptr %37, i64 %44
  %46 = load i16, ptr %45, align 2, !tbaa !14
  %47 = zext i16 %46 to i32
  %48 = shl i32 %47, 2
  %49 = load i32, ptr %3, align 4, !tbaa !3
  %50 = and i32 %49, 31
  %51 = add nsw i32 %48, %50
  br label %86

52:                                               ; preds = %33
  %53 = load i32, ptr %3, align 4, !tbaa !3
  %54 = icmp ugt i32 %53, 1114111
  br i1 %54, label %55, label %56

55:                                               ; preds = %52
  br label %84

56:                                               ; preds = %52
  %57 = load i32, ptr %3, align 4, !tbaa !3
  %58 = icmp sge i32 %57, 1114112
  br i1 %58, label %59, label %60

59:                                               ; preds = %56
  br label %82

60:                                               ; preds = %56
  %61 = load ptr, ptr @_ZL9propsTrie, align 8, !tbaa !7
  %62 = load ptr, ptr @_ZL9propsTrie, align 8, !tbaa !7
  %63 = load i32, ptr %3, align 4, !tbaa !3
  %64 = ashr i32 %63, 11
  %65 = add nsw i32 2080, %64
  %66 = sext i32 %65 to i64
  %67 = getelementptr inbounds i16, ptr %62, i64 %66
  %68 = load i16, ptr %67, align 2, !tbaa !14
  %69 = zext i16 %68 to i32
  %70 = load i32, ptr %3, align 4, !tbaa !3
  %71 = ashr i32 %70, 5
  %72 = and i32 %71, 63
  %73 = add nsw i32 %69, %72
  %74 = sext i32 %73 to i64
  %75 = getelementptr inbounds i16, ptr %61, i64 %74
  %76 = load i16, ptr %75, align 2, !tbaa !14
  %77 = zext i16 %76 to i32
  %78 = shl i32 %77, 2
  %79 = load i32, ptr %3, align 4, !tbaa !3
  %80 = and i32 %79, 31
  %81 = add nsw i32 %78, %80
  br label %82

82:                                               ; preds = %60, %59
  %83 = phi i32 [ 23792, %59 ], [ %81, %60 ]
  br label %84

84:                                               ; preds = %82, %55
  %85 = phi i32 [ 4876, %55 ], [ %83, %82 ]
  br label %86

86:                                               ; preds = %84, %36
  %87 = phi i32 [ %51, %36 ], [ %85, %84 ]
  br label %88

88:                                               ; preds = %86, %20
  %89 = phi i32 [ %32, %20 ], [ %87, %86 ]
  %90 = sext i32 %89 to i64
  %91 = getelementptr inbounds i16, ptr %17, i64 %90
  %92 = load i16, ptr %91, align 2, !tbaa !14
  %93 = zext i16 %92 to i32
  store i32 %93, ptr %4, align 4, !tbaa !3
  %94 = load i32, ptr %4, align 4, !tbaa !3
  %95 = and i32 %94, 31
  %96 = icmp eq i32 %95, 12
  %97 = zext i1 %96 to i8
  store i8 %97, ptr %2, align 1
  call void @llvm.lifetime.end.p0(i64 4, ptr %4) #6
  br label %98

98:                                               ; preds = %88, %13
  %99 = load i8, ptr %2, align 1
  ret i8 %99
}