; Function Attrs: mustprogress nofree norecurse nosync nounwind willreturn memory(none) uwtable
define signext range(i8 0, 2) i8 @u_isblank_77(i32 noundef %0) local_unnamed_addr #0 {
  %2 = icmp ult i32 %0, 160
  br i1 %2, label %3, label %7

3:                                                ; preds = %1
  %4 = icmp eq i32 %0, 9
  %5 = icmp eq i32 %0, 32
  %6 = or i1 %4, %5
  br label %44

7:                                                ; preds = %1
  %8 = icmp ult i32 %0, 55296
  br i1 %8, label %9, label %11

9:                                                ; preds = %7
  %10 = lshr i32 %0, 5
  br label %.sink.split

11:                                               ; preds = %7
  %12 = icmp ult i32 %0, 65536
  br i1 %12, label %13, label %18

13:                                               ; preds = %11
  %14 = icmp samesign ult i32 %0, 56320
  %15 = select i1 %14, i32 320, i32 0
  %16 = lshr i32 %0, 5
  %17 = add nuw nsw i32 %15, %16
  br label %.sink.split

18:                                               ; preds = %11
  %19 = icmp ugt i32 %0, 1114111
  br i1 %19, label %38, label %20

20:                                               ; preds = %18
  %21 = lshr i32 %0, 11
  %22 = zext nneg i32 %21 to i64
  %23 = getelementptr inbounds nuw i16, ptr @_ZL15propsTrie_index, i64 %22
  %24 = getelementptr inbounds nuw i8, ptr %23, i64 4160
  %25 = load i16, ptr %24, align 2, !tbaa !3
  %26 = zext i16 %25 to i32
  %27 = lshr i32 %0, 5
  %28 = and i32 %27, 63
  %29 = add nuw nsw i32 %28, %26
  br label %.sink.split

.sink.split:                                      ; preds = %9, %20, %13
  %.sink21 = phi i32 [ %17, %13 ], [ %29, %20 ], [ %10, %9 ]
  %30 = zext nneg i32 %.sink21 to i64
  %31 = getelementptr inbounds nuw i16, ptr @_ZL15propsTrie_index, i64 %30
  %32 = load i16, ptr %31, align 2, !tbaa !3
  %33 = zext i16 %32 to i32
  %34 = shl nuw nsw i32 %33, 2
  %35 = and i32 %0, 31
  %36 = add nuw nsw i32 %34, %35
  %37 = zext nneg i32 %36 to i64
  br label %38

38:                                               ; preds = %.sink.split, %18
  %39 = phi i64 [ 4876, %18 ], [ %37, %.sink.split ]
  %40 = getelementptr inbounds nuw i16, ptr @_ZL15propsTrie_index, i64 %39
  %41 = load i16, ptr %40, align 2, !tbaa !3
  %42 = and i16 %41, 31
  %43 = icmp eq i16 %42, 12
  br label %44

44:                                               ; preds = %38, %3
  %.0.in = phi i1 [ %6, %3 ], [ %43, %38 ]
  %.0 = zext i1 %.0.in to i8
  ret i8 %.0
}